target datalayout = "e-m:e-p270:32:32-p271:32:32-p272:64:64-i64:64-i128:128-f80:128-n8:16:32:64-S128"
target triple = "x86_64-pc-linux-gnu"

%"class.smt2::scanner" = type { ptr, i8, i32, i8, i8, i32, i32, %class.symbol, %class.rational, i32, [256 x i8], [1024 x i8], i32, i32, %class.svector, ptr, i8, %class.svector, %class.svector }
%class.symbol = type { ptr }
%class.rational = type { %class.mpq }
%class.mpq = type { %class.mpz, %class.mpz }
%class.mpz = type { i32, i8, ptr }
%class.svector = type { %class.vector }
%class.vector = type { ptr }

; Function Attrs: mustprogress nounwind uwtable
define linkonce_odr hidden void @_ZN4smt27scanner8new_lineEv(ptr noundef nonnull align 8 dereferenceable(1408) %0) #5 comdat align 2 {
  %2 = alloca ptr, align 8
  store ptr %0, ptr %2, align 8, !tbaa !3
  %3 = load ptr, ptr %2, align 8
  %4 = getelementptr inbounds nuw %"class.smt2::scanner", ptr %3, i32 0, i32 5
  %5 = load i32, ptr %4, align 4, !tbaa !57
  %6 = add nsw i32 %5, 1
  store i32 %6, ptr %4, align 4, !tbaa !57
  %7 = getelementptr inbounds nuw %"class.smt2::scanner", ptr %3, i32 0, i32 2
  store i32 0, ptr %7, align 4, !tbaa !33
  ret void
}

; Function Attrs: mustprogress nounwind uwtable
define linkonce_odr hidden noundef signext i8 @_ZNK4smt27scanner4currEv(ptr noundef nonnull align 8 dereferenceable(1408) %0) #5 comdat align 2 {
  %2 = alloca ptr, align 8
  store ptr %0, ptr %2, align 8, !tbaa !3
  %3 = load ptr, ptr %2, align 8
  %4 = getelementptr inbounds nuw %"class.smt2::scanner", ptr %3, i32 0, i32 3
  %5 = load i8, ptr %4, align 8, !tbaa !27
  ret i8 %5
}

; Function Attrs: mustprogress uwtable
define hidden void @_ZN4smt27scanner22read_multiline_commentEv(ptr noundef nonnull align 8 dereferenceable(1408) %0) #4 align 2 {
  %2 = alloca ptr, align 8
  %3 = alloca i8, align 1
  %4 = alloca i32, align 4
  store ptr %0, ptr %2, align 8, !tbaa !3
  %5 = load ptr, ptr %2, align 8
  call void @_ZN4smt27scanner4nextEv(ptr noundef nonnull align 8 dereferenceable(1408) %5)
  br label %6

6:                                                ; preds = %1, %27, %29
  call void @llvm.lifetime.start.p0(i64 1, ptr %3) #3
  %7 = call noundef signext i8 @_ZNK4smt27scanner4currEv(ptr noundef nonnull align 8 dereferenceable(1408) %5)
  store i8 %7, ptr %3, align 1, !tbaa !32
  %8 = getelementptr inbounds nuw %"class.smt2::scanner", ptr %5, i32 0, i32 4
  %9 = load i8, ptr %8, align 1, !tbaa !24, !range !22, !noundef !23
  %10 = trunc i8 %9 to i1
  br i1 %10, label %11, label %12

11:                                               ; preds = %6
  store i32 1, ptr %4, align 4
  br label %27

12:                                               ; preds = %6
  %13 = load i8, ptr %3, align 1, !tbaa !32
  %14 = sext i8 %13 to i32
  %15 = icmp eq i32 %14, 10
  br i1 %15, label %16, label %17

16:                                               ; preds = %12
  call void @_ZN4smt27scanner8new_lineEv(ptr noundef nonnull align 8 dereferenceable(1408) %5)
  call void @_ZN4smt27scanner4nextEv(ptr noundef nonnull align 8 dereferenceable(1408) %5)
  store i32 2, ptr %4, align 4
  br label %27, !llvm.loop !58

17:                                               ; preds = %12
  call void @_ZN4smt27scanner4nextEv(ptr noundef nonnull align 8 dereferenceable(1408) %5)
  %18 = load i8, ptr %3, align 1, !tbaa !32
  %19 = sext i8 %18 to i32
  %20 = icmp eq i32 %19, 124
  br i1 %20, label %21, label %26

21:                                               ; preds = %17
  %22 = call noundef signext i8 @_ZNK4smt27scanner4currEv(ptr noundef nonnull align 8 dereferenceable(1408) %5)
  %23 = sext i8 %22 to i32
  %24 = icmp eq i32 %23, 35
  br i1 %24, label %25, label %26

25:                                               ; preds = %21
  call void @_ZN4smt27scanner4nextEv(ptr noundef nonnull align 8 dereferenceable(1408) %5)
  store i32 1, ptr %4, align 4
  br label %27

26:                                               ; preds = %21, %17
  store i32 0, ptr %4, align 4
  br label %27

27:                                               ; preds = %26, %25, %16, %11
  call void @llvm.lifetime.end.p0(i64 1, ptr %3) #3
  %28 = load i32, ptr %4, align 4
  switch i32 %28, label %31 [
    i32 0, label %29
    i32 1, label %30
    i32 2, label %6
  ]

29:                                               ; preds = %27
  br label %6, !llvm.loop !58

30:                                               ; preds = %27
  ret void

31:                                               ; preds = %27
  unreachable
}