; Function Attrs: mustprogress uwtable
define hidden void @_ZN4smt27scanner22read_multiline_commentEv(ptr noundef nonnull align 8 dereferenceable(1408) %0) local_unnamed_addr #3 align 2 {
  tail call void @_ZN4smt27scanner4nextEv(ptr noundef nonnull align 8 dereferenceable(1408) %0)
  %2 = getelementptr inbounds nuw i8, ptr %0, i64 16
  %3 = getelementptr inbounds nuw i8, ptr %0, i64 17
  %4 = load i8, ptr %3, align 1, !tbaa !25, !range !20, !noundef !21
  %5 = trunc nuw i8 %4 to i1
  br i1 %5, label %.loopexit, label %.lr.ph

.lr.ph:                                           ; preds = %1
  %6 = getelementptr inbounds nuw i8, ptr %0, i64 20
  %7 = getelementptr inbounds nuw i8, ptr %0, i64 12
  br label %8

8:                                                ; preds = %.lr.ph, %19
  %9 = load i8, ptr %2, align 8, !tbaa !28
  %10 = icmp eq i8 %9, 10
  br i1 %10, label %11, label %14

11:                                               ; preds = %8
  %12 = load i32, ptr %6, align 4, !tbaa !58
  %13 = add nsw i32 %12, 1
  store i32 %13, ptr %6, align 4, !tbaa !58
  store i32 0, ptr %7, align 4, !tbaa !45
  tail call void @_ZN4smt27scanner4nextEv(ptr noundef nonnull align 8 dereferenceable(1408) %0)
  br label %19, !llvm.loop !59

14:                                               ; preds = %8
  tail call void @_ZN4smt27scanner4nextEv(ptr noundef nonnull align 8 dereferenceable(1408) %0)
  %15 = icmp eq i8 %9, 124
  %16 = load i8, ptr %2, align 8
  %17 = icmp eq i8 %16, 35
  %or.cond = select i1 %15, i1 %17, i1 false
  br i1 %or.cond, label %18, label %19

18:                                               ; preds = %14
  tail call void @_ZN4smt27scanner4nextEv(ptr noundef nonnull align 8 dereferenceable(1408) %0)
  br label %.loopexit

19:                                               ; preds = %14, %11
  %20 = load i8, ptr %3, align 1, !tbaa !25, !range !20, !noundef !21
  %21 = trunc nuw i8 %20 to i1
  br i1 %21, label %.loopexit, label %8

.loopexit:                                        ; preds = %19, %1, %18
  ret void
}